target datalayout = "e-m:e-p270:32:32-p271:32:32-p272:64:64-i64:64-i128:128-f80:128-n8:16:32:64-S128"
target triple = "x86_64-pc-linux-gnu"

%struct.TS_resp_st = type { ptr, ptr, ptr }
%struct.TS_status_info_st = type { ptr, ptr, ptr }
%struct.anon = type { i32, ptr }

@.str = private unnamed_addr constant [37 x i8] c"../openssl/crypto/ts/ts_rsp_verify.c\00", align 1
@ts_status_text = internal global [6 x ptr] [ptr @.str.6, ptr @.str.7, ptr @.str.8, ptr @.str.9, ptr @.str.10, ptr @.str.11], align 16
@.str.2 = private unnamed_addr constant [13 x i8] c"unknown code\00", align 1
@.str.3 = private unnamed_addr constant [2 x i8] c",\00", align 1
@.str.4 = private unnamed_addr constant [12 x i8] c"unspecified\00", align 1
@__func__.ts_check_status_info = private unnamed_addr constant [21 x i8] c"ts_check_status_info\00", align 1
@.str.5 = private unnamed_addr constant [52 x i8] c"status code: %s, status text: %s, failure codes: %s\00", align 1
@.str.12 = private unnamed_addr constant [2 x i8] c"/\00", align 1

; Function Attrs: nounwind uwtable
define internal ptr @ts_get_status_text(ptr noundef %0) #0 {
  %2 = alloca ptr, align 8
  store ptr %0, ptr %2, align 8, !tbaa !125
  %3 = load ptr, ptr %2, align 8, !tbaa !125
  %4 = call ptr @ossl_sk_ASN1_UTF8STRING2text(ptr noundef %3, ptr noundef @.str.12, i64 noundef 1048576)
  ret ptr %4
}

; Function Attrs: inlinehint nounwind uwtable
define internal ptr @ossl_check_const_ASN1_UTF8STRING_sk_type(ptr noundef %0) #3 {
  %2 = alloca ptr, align 8
  store ptr %0, ptr %2, align 8, !tbaa !125
  %3 = load ptr, ptr %2, align 8, !tbaa !125
  ret ptr %3
}

; Function Attrs: nounwind uwtable
define internal i32 @ts_check_status_info(ptr noundef %0) #0 {
  %2 = alloca i32, align 4
  %3 = alloca ptr, align 8
  %4 = alloca ptr, align 8
  %5 = alloca i64, align 8
  %6 = alloca ptr, align 8
  %7 = alloca ptr, align 8
  %8 = alloca [256 x i8], align 16
  %9 = alloca i32, align 4
  %10 = alloca i32, align 4
  %11 = alloca i32, align 4
  store ptr %0, ptr %3, align 8, !tbaa !50
  call void @llvm.lifetime.start.p0(i64 8, ptr %4) #7
  %12 = load ptr, ptr %3, align 8, !tbaa !50
  %13 = getelementptr inbounds nuw %struct.TS_resp_st, ptr %12, i32 0, i32 0
  %14 = load ptr, ptr %13, align 8, !tbaa !58
  store ptr %14, ptr %4, align 8, !tbaa !59
  call void @llvm.lifetime.start.p0(i64 8, ptr %5) #7
  %15 = load ptr, ptr %4, align 8, !tbaa !59
  %16 = getelementptr inbounds nuw %struct.TS_status_info_st, ptr %15, i32 0, i32 0
  %17 = load ptr, ptr %16, align 8, !tbaa !60
  %18 = call i64 @ASN1_INTEGER_get(ptr noundef %17)
  store i64 %18, ptr %5, align 8, !tbaa !63
  call void @llvm.lifetime.start.p0(i64 8, ptr %6) #7
  store ptr null, ptr %6, align 8, !tbaa !64
  call void @llvm.lifetime.start.p0(i64 8, ptr %7) #7
  store ptr null, ptr %7, align 8, !tbaa !64
  call void @llvm.lifetime.start.p0(i64 256, ptr %8) #7
  call void @llvm.memset.p0.i64(ptr align 16 %8, i8 0, i64 256, i1 false)
  %19 = load i64, ptr %5, align 8, !tbaa !63
  %20 = icmp eq i64 %19, 0
  br i1 %20, label %24, label %21

21:                                               ; preds = %1
  %22 = load i64, ptr %5, align 8, !tbaa !63
  %23 = icmp eq i64 %22, 1
  br i1 %23, label %24, label %25

24:                                               ; preds = %21, %1
  store i32 1, ptr %2, align 4
  store i32 1, ptr %9, align 4
  br label %109

25:                                               ; preds = %21
  %26 = load i64, ptr %5, align 8, !tbaa !63
  %27 = icmp sle i64 0, %26
  br i1 %27, label %28, label %35

28:                                               ; preds = %25
  %29 = load i64, ptr %5, align 8, !tbaa !63
  %30 = icmp slt i64 %29, 6
  br i1 %30, label %31, label %35

31:                                               ; preds = %28
  %32 = load i64, ptr %5, align 8, !tbaa !63
  %33 = getelementptr inbounds [6 x ptr], ptr @ts_status_text, i64 0, i64 %32
  %34 = load ptr, ptr %33, align 8, !tbaa !64
  store ptr %34, ptr %6, align 8, !tbaa !64
  br label %36

35:                                               ; preds = %28, %25
  store ptr @.str.2, ptr %6, align 8, !tbaa !64
  br label %36

36:                                               ; preds = %35, %31
  %37 = load ptr, ptr %4, align 8, !tbaa !59
  %38 = getelementptr inbounds nuw %struct.TS_status_info_st, ptr %37, i32 0, i32 1
  %39 = load ptr, ptr %38, align 8, !tbaa !65
  %40 = call ptr @ossl_check_const_ASN1_UTF8STRING_sk_type(ptr noundef %39)
  %41 = call i32 @OPENSSL_sk_num(ptr noundef %40)
  %42 = icmp sgt i32 %41, 0
  br i1 %42, label %43, label %50

43:                                               ; preds = %36
  %44 = load ptr, ptr %4, align 8, !tbaa !59
  %45 = getelementptr inbounds nuw %struct.TS_status_info_st, ptr %44, i32 0, i32 1
  %46 = load ptr, ptr %45, align 8, !tbaa !65
  %47 = call ptr @ts_get_status_text(ptr noundef %46)
  store ptr %47, ptr %7, align 8, !tbaa !64
  %48 = icmp eq ptr %47, null
  br i1 %48, label %49, label %50

49:                                               ; preds = %43
  store i32 0, ptr %2, align 4
  store i32 1, ptr %9, align 4
  br label %109

50:                                               ; preds = %43, %36
  %51 = load ptr, ptr %4, align 8, !tbaa !59
  %52 = getelementptr inbounds nuw %struct.TS_status_info_st, ptr %51, i32 0, i32 2
  %53 = load ptr, ptr %52, align 8, !tbaa !66
  %54 = icmp ne ptr %53, null
  br i1 %54, label %55, label %90

55:                                               ; preds = %50
  call void @llvm.lifetime.start.p0(i64 4, ptr %10) #7
  call void @llvm.lifetime.start.p0(i64 4, ptr %11) #7
  store i32 1, ptr %11, align 4, !tbaa !16
  store i32 0, ptr %10, align 4, !tbaa !16
  br label %56

56:                                               ; preds = %86, %55
  %57 = load i32, ptr %10, align 4, !tbaa !16
  %58 = icmp slt i32 %57, 8
  br i1 %58, label %59, label %89

59:                                               ; preds = %56
  %60 = load ptr, ptr %4, align 8, !tbaa !59
  %61 = getelementptr inbounds nuw %struct.TS_status_info_st, ptr %60, i32 0, i32 2
  %62 = load ptr, ptr %61, align 8, !tbaa !66
  %63 = load i32, ptr %10, align 4, !tbaa !16
  %64 = sext i32 %63 to i64
  %65 = getelementptr inbounds [8 x %struct.anon], ptr @ts_failure_info, i64 0, i64 %64
  %66 = getelementptr inbounds nuw %struct.anon, ptr %65, i32 0, i32 0
  %67 = load i32, ptr %66, align 16, !tbaa !67
  %68 = call i32 @ASN1_BIT_STRING_get_bit(ptr noundef %62, i32 noundef %67)
  %69 = icmp ne i32 %68, 0
  br i1 %69, label %70, label %85

70:                                               ; preds = %59
  %71 = load i32, ptr %11, align 4, !tbaa !16
  %72 = icmp ne i32 %71, 0
  br i1 %72, label %76, label %73

73:                                               ; preds = %70
  %74 = getelementptr inbounds [256 x i8], ptr %8, i64 0, i64 0
  %75 = call ptr @strcat(ptr noundef %74, ptr noundef @.str.3) #7
  br label %77

76:                                               ; preds = %70
  store i32 0, ptr %11, align 4, !tbaa !16
  br label %77

77:                                               ; preds = %76, %73
  %78 = getelementptr inbounds [256 x i8], ptr %8, i64 0, i64 0
  %79 = load i32, ptr %10, align 4, !tbaa !16
  %80 = sext i32 %79 to i64
  %81 = getelementptr inbounds [8 x %struct.anon], ptr @ts_failure_info, i64 0, i64 %80
  %82 = getelementptr inbounds nuw %struct.anon, ptr %81, i32 0, i32 1
  %83 = load ptr, ptr %82, align 8, !tbaa !69
  %84 = call ptr @strcat(ptr noundef %78, ptr noundef %83) #7
  br label %85

85:                                               ; preds = %77, %59
  br label %86

86:                                               ; preds = %85
  %87 = load i32, ptr %10, align 4, !tbaa !16
  %88 = add nsw i32 %87, 1
  store i32 %88, ptr %10, align 4, !tbaa !16
  br label %56, !llvm.loop !70

89:                                               ; preds = %56
  call void @llvm.lifetime.end.p0(i64 4, ptr %11) #7
  call void @llvm.lifetime.end.p0(i64 4, ptr %10) #7
  br label %90

90:                                               ; preds = %89, %50
  %91 = getelementptr inbounds [256 x i8], ptr %8, i64 0, i64 0
  %92 = load i8, ptr %91, align 16, !tbaa !31
  %93 = sext i8 %92 to i32
  %94 = icmp eq i32 %93, 0
  br i1 %94, label %95, label %98

95:                                               ; preds = %90
  %96 = getelementptr inbounds [256 x i8], ptr %8, i64 0, i64 0
  %97 = call ptr @strcpy(ptr noundef %96, ptr noundef @.str.4) #7
  br label %98

98:                                               ; preds = %95, %90
  call void @ERR_new()
  call void @ERR_set_debug(ptr noundef @.str, i32 noundef 390, ptr noundef @__func__.ts_check_status_info)
  %99 = load ptr, ptr %6, align 8, !tbaa !64
  %100 = load ptr, ptr %7, align 8, !tbaa !64
  %101 = icmp ne ptr %100, null
  br i1 %101, label %102, label %104

102:                                              ; preds = %98
  %103 = load ptr, ptr %7, align 8, !tbaa !64
  br label %105

104:                                              ; preds = %98
  br label %105

105:                                              ; preds = %104, %102
  %106 = phi ptr [ %103, %102 ], [ @.str.4, %104 ]
  %107 = getelementptr inbounds [256 x i8], ptr %8, i64 0, i64 0
  call void (i32, i32, ptr, ...) @ERR_set_error(i32 noundef 47, i32 noundef 107, ptr noundef @.str.5, ptr noundef %99, ptr noundef %106, ptr noundef %107)
  %108 = load ptr, ptr %7, align 8, !tbaa !64
  call void @CRYPTO_free(ptr noundef %108, ptr noundef @.str, i32 noundef 395)
  store i32 0, ptr %2, align 4
  store i32 1, ptr %9, align 4
  br label %109

109:                                              ; preds = %105, %49, %24
  call void @llvm.lifetime.end.p0(i64 256, ptr %8) #7
  call void @llvm.lifetime.end.p0(i64 8, ptr %7) #7
  call void @llvm.lifetime.end.p0(i64 8, ptr %6) #7
  call void @llvm.lifetime.end.p0(i64 8, ptr %5) #7
  call void @llvm.lifetime.end.p0(i64 8, ptr %4) #7
  %110 = load i32, ptr %2, align 4
  ret i32 %110
}

; Function Attrs: nounwind uwtable
define i32 @TS_RESP_verify_response(ptr noundef %0, ptr noundef %1) #0 {
  %3 = alloca ptr, align 8
  %4 = alloca ptr, align 8
  %5 = alloca ptr, align 8
  %6 = alloca ptr, align 8
  %7 = alloca i32, align 4
  store ptr %0, ptr %3, align 8, !tbaa !48
  store ptr %1, ptr %4, align 8, !tbaa !50
  call void @llvm.lifetime.start.p0(i64 8, ptr %5) #7
  %8 = load ptr, ptr %4, align 8, !tbaa !50
  %9 = getelementptr inbounds nuw %struct.TS_resp_st, ptr %8, i32 0, i32 1
  %10 = load ptr, ptr %9, align 8, !tbaa !52
  store ptr %10, ptr %5, align 8, !tbaa !3
  call void @llvm.lifetime.start.p0(i64 8, ptr %6) #7
  %11 = load ptr, ptr %4, align 8, !tbaa !50
  %12 = getelementptr inbounds nuw %struct.TS_resp_st, ptr %11, i32 0, i32 2
  %13 = load ptr, ptr %12, align 8, !tbaa !56
  store ptr %13, ptr %6, align 8, !tbaa !57
  call void @llvm.lifetime.start.p0(i64 4, ptr %7) #7
  store i32 0, ptr %7, align 4, !tbaa !16
  %14 = load ptr, ptr %4, align 8, !tbaa !50
  %15 = call i32 @ts_check_status_info(ptr noundef %14)
  %16 = icmp ne i32 %15, 0
  br i1 %16, label %18, label %17

17:                                               ; preds = %2
  br label %26

18:                                               ; preds = %2
  %19 = load ptr, ptr %3, align 8, !tbaa !48
  %20 = load ptr, ptr %5, align 8, !tbaa !3
  %21 = load ptr, ptr %6, align 8, !tbaa !57
  %22 = call i32 @int_ts_RESP_verify_token(ptr noundef %19, ptr noundef %20, ptr noundef %21)
  %23 = icmp ne i32 %22, 0
  br i1 %23, label %25, label %24

24:                                               ; preds = %18
  br label %26

25:                                               ; preds = %18
  store i32 1, ptr %7, align 4, !tbaa !16
  br label %26

26:                                               ; preds = %25, %24, %17
  %27 = load i32, ptr %7, align 4, !tbaa !16
  call void @llvm.lifetime.end.p0(i64 4, ptr %7) #7
  call void @llvm.lifetime.end.p0(i64 8, ptr %6) #7
  call void @llvm.lifetime.end.p0(i64 8, ptr %5) #7
  ret i32 %27
}