; Function Attrs: nounwind uwtable
define range(i32 0, 2) i32 @TS_RESP_verify_response(ptr noundef readonly captures(none) %0, ptr noundef readonly captures(none) %1) local_unnamed_addr #0 {
  %3 = alloca [256 x i8], align 16
  %4 = getelementptr inbounds nuw i8, ptr %1, i64 8
  %5 = load ptr, ptr %4, align 8, !tbaa !32
  %6 = getelementptr inbounds nuw i8, ptr %1, i64 16
  %7 = load ptr, ptr %6, align 8, !tbaa !36
  %.val = load ptr, ptr %1, align 8, !tbaa !37
  %8 = load ptr, ptr %.val, align 8, !tbaa !38
  %9 = tail call i64 @ASN1_INTEGER_get(ptr noundef %8) #7
  call void @llvm.lifetime.start.p0(i64 256, ptr nonnull %3) #7
  call void @llvm.memset.p0.i64(ptr noundef nonnull align 16 dereferenceable(256) %3, i8 0, i64 256, i1 false)
  %or.cond.i = icmp ult i64 %9, 2
  br i1 %or.cond.i, label %40, label %10

10:                                               ; preds = %2
  %or.cond3.i = icmp ult i64 %9, 6
  br i1 %or.cond3.i, label %11, label %14

11:                                               ; preds = %10
  %12 = getelementptr inbounds nuw [6 x ptr], ptr @ts_status_text, i64 0, i64 %9
  %13 = load ptr, ptr %12, align 8, !tbaa !30
  br label %14

14:                                               ; preds = %11, %10
  %.025.i = phi ptr [ %13, %11 ], [ @.str.2, %10 ]
  %15 = getelementptr inbounds nuw i8, ptr %.val, i64 8
  %16 = load ptr, ptr %15, align 8, !tbaa !41
  %17 = tail call i32 @OPENSSL_sk_num(ptr noundef %16) #7
  %18 = icmp sgt i32 %17, 0
  br i1 %18, label %19, label %23

19:                                               ; preds = %14
  %20 = load ptr, ptr %15, align 8, !tbaa !41
  %21 = tail call ptr @ossl_sk_ASN1_UTF8STRING2text(ptr noundef %20, ptr noundef nonnull @.str.12, i64 noundef 1048576) #7
  %22 = icmp eq ptr %21, null
  br i1 %22, label %ts_check_status_info.exit.thread, label %23

23:                                               ; preds = %19, %14
  %.024.i = phi ptr [ %21, %19 ], [ null, %14 ]
  %24 = getelementptr inbounds nuw i8, ptr %.val, i64 16
  %25 = load ptr, ptr %24, align 8, !tbaa !42
  %.not.i = icmp eq ptr %25, null
  br i1 %.not.i, label %.loopexit.thread.i, label %.preheader.i

.preheader.i:                                     ; preds = %23, %36
  %indvars.iv.i = phi i64 [ %indvars.iv.next.i, %36 ], [ 0, %23 ]
  %.02.i = phi i32 [ %.2.i, %36 ], [ 1, %23 ]
  %26 = load ptr, ptr %24, align 8, !tbaa !42
  %27 = getelementptr inbounds nuw [8 x %struct.anon], ptr @ts_failure_info, i64 0, i64 %indvars.iv.i
  %28 = load i32, ptr %27, align 16, !tbaa !43
  %29 = call i32 @ASN1_BIT_STRING_get_bit(ptr noundef %26, i32 noundef %28) #7
  %.not30.i = icmp eq i32 %29, 0
  br i1 %.not30.i, label %36, label %30

30:                                               ; preds = %.preheader.i
  %.not31.i = icmp eq i32 %.02.i, 0
  br i1 %.not31.i, label %31, label %32

31:                                               ; preds = %30
  %strlen.i = call i64 @strlen(ptr noundef nonnull dereferenceable(1) %3)
  %endptr.i = getelementptr inbounds i8, ptr %3, i64 %strlen.i
  store i16 44, ptr %endptr.i, align 1
  br label %32

32:                                               ; preds = %31, %30
  %33 = getelementptr inbounds nuw i8, ptr %27, i64 8
  %34 = load ptr, ptr %33, align 8, !tbaa !45
  %35 = call ptr @strcat(ptr noundef nonnull dereferenceable(1) %3, ptr noundef nonnull dereferenceable(1) %34) #7
  br label %36

36:                                               ; preds = %32, %.preheader.i
  %.2.i = phi i32 [ 0, %32 ], [ %.02.i, %.preheader.i ]
  %indvars.iv.next.i = add nuw nsw i64 %indvars.iv.i, 1
  %exitcond.not.i = icmp eq i64 %indvars.iv.next.i, 8
  br i1 %exitcond.not.i, label %.loopexit.i, label %.preheader.i, !llvm.loop !46

.loopexit.i:                                      ; preds = %36
  %.pre.i = load i8, ptr %3, align 16, !tbaa !14
  %37 = icmp eq i8 %.pre.i, 0
  br i1 %37, label %.loopexit.thread.i, label %38

.loopexit.thread.i:                               ; preds = %.loopexit.i, %23
  call void @llvm.memcpy.p0.p0.i64(ptr noundef nonnull align 16 dereferenceable(12) %3, ptr noundef nonnull align 1 dereferenceable(12) @.str.4, i64 12, i1 false) #7
  br label %38

38:                                               ; preds = %.loopexit.thread.i, %.loopexit.i
  call void @ERR_new() #7
  call void @ERR_set_debug(ptr noundef nonnull @.str, i32 noundef 390, ptr noundef nonnull @__func__.ts_check_status_info) #7
  %.not29.i = icmp eq ptr %.024.i, null
  %39 = select i1 %.not29.i, ptr @.str.4, ptr %.024.i
  call void (i32, i32, ptr, ...) @ERR_set_error(i32 noundef 47, i32 noundef 107, ptr noundef nonnull @.str.5, ptr noundef %.025.i, ptr noundef nonnull %39, ptr noundef nonnull %3) #7
  call void @CRYPTO_free(ptr noundef %.024.i, ptr noundef nonnull @.str, i32 noundef 395) #7
  br label %ts_check_status_info.exit.thread

ts_check_status_info.exit.thread:                 ; preds = %38, %19
  call void @llvm.lifetime.end.p0(i64 256, ptr nonnull %3) #7
  br label %42

40:                                               ; preds = %2
  call void @llvm.lifetime.end.p0(i64 256, ptr nonnull %3) #7
  %41 = tail call fastcc i32 @int_ts_RESP_verify_token(ptr noundef %0, ptr noundef %5, ptr noundef %7)
  br label %42

42:                                               ; preds = %ts_check_status_info.exit.thread, %40
  %.0 = phi i32 [ %41, %40 ], [ 0, %ts_check_status_info.exit.thread ]
  ret i32 %.0
}